target datalayout = "e-m:e-p270:32:32-p271:32:32-p272:64:64-i64:64-i128:128-f80:128-n8:16:32:64-S128"
target triple = "x86_64-unknown-linux-gnu"

%struct.ReplicationOps = type { ptr, ptr, ptr, ptr }
%struct.QTailQLink = type { ptr, ptr }
%struct.BlockDriverState = type { i32, i8, i8, i8, i8, i8, ptr, ptr, ptr, %struct.anon.0, i8, [4096 x i8], [4096 x i8], [4096 x i8], [16 x i8], ptr, [4096 x i8], %struct.BlockLimits, i32, i32, i32, i32, [32 x i8], %union.anon, %union.anon.1, %union.anon.2, i32, [16 x %struct.anon.3], ptr, %struct.anon.4, ptr, ptr, %struct.anon.5, ptr, ptr, i32, ptr, i64, i64, %struct.QemuMutex, %struct.anon.6, %struct.Stat64, i32, i32, i32, i32, i32, i32, %struct.QemuMutex, %struct.anon.7, %struct.CoQueue, i8, i32, i8, %struct.CoMutex, ptr, ptr }
%struct.anon.0 = type { ptr }
%struct.BlockLimits = type { i32, i64, i32, i64, i32, i32, i32, i64, i32, i64, i64, i32, i8, i32, i32, i32, i32, i32, i32, i32 }
%union.anon = type { %struct.QTailQLink }
%union.anon.1 = type { %struct.QTailQLink }
%union.anon.2 = type { %struct.QTailQLink }
%struct.anon.3 = type { ptr }
%struct.anon.4 = type { ptr }
%struct.anon.5 = type { ptr }
%struct.anon.6 = type { ptr }
%struct.Stat64 = type { i64 }
%struct.QemuMutex = type { %union.pthread_mutex_t, i8 }
%union.pthread_mutex_t = type { %struct.__pthread_mutex_s }
%struct.__pthread_mutex_s = type { i32, i32, i32, i32, i32, i16, i16, %struct.__pthread_internal_list }
%struct.__pthread_internal_list = type { ptr, ptr }
%struct.anon.7 = type { ptr }
%struct.CoQueue = type { %struct.anon.8 }
%struct.anon.8 = type { ptr, ptr }
%struct.CoMutex = type { i32, ptr, %struct.anon.9, %struct.anon.9, i32, i32, ptr }
%struct.anon.9 = type { ptr }
%struct.BDRVReplicationState = type { i32, i32, ptr, ptr, ptr, ptr, ptr, ptr, ptr, i8, i8, i32 }

@.str.1 = private unnamed_addr constant [5 x i8] c"mode\00", align 1
@.str.2 = private unnamed_addr constant [7 x i8] c"top-id\00", align 1
@.str.3 = private unnamed_addr constant [5 x i8] c"file\00", align 1
@error_abort = external global ptr, align 8
@.str.4 = private unnamed_addr constant [28 x i8] c"../qemu/block/replication.c\00", align 1
@__func__.replication_open = private unnamed_addr constant [17 x i8] c"replication_open\00", align 1
@.str.5 = private unnamed_addr constant [24 x i8] c"Missing the option mode\00", align 1
@.str.6 = private unnamed_addr constant [8 x i8] c"primary\00", align 1
@.str.7 = private unnamed_addr constant [48 x i8] c"The primary side does not support option top-id\00", align 1
@.str.8 = private unnamed_addr constant [10 x i8] c"secondary\00", align 1
@.str.9 = private unnamed_addr constant [26 x i8] c"Missing the option top-id\00", align 1
@.str.10 = private unnamed_addr constant [55 x i8] c"The option mode's value should be primary or secondary\00", align 1
@replication_ops = internal global %struct.ReplicationOps { ptr @replication_start, ptr @replication_stop, ptr @replication_do_checkpoint, ptr @replication_get_error }, align 8

; Function Attrs: nounwind sspstrong uwtable
define internal i32 @replication_open(ptr noundef %bs, ptr noundef %options, i32 noundef %flags, ptr noundef %errp) #0 {
entry:
  %retval = alloca i32, align 4
  %bs.addr = alloca ptr, align 8
  %options.addr = alloca ptr, align 8
  %flags.addr = alloca i32, align 4
  %errp.addr = alloca ptr, align 8
  %ret = alloca i32, align 4
  %s = alloca ptr, align 8
  %opts = alloca ptr, align 8
  %mode = alloca ptr, align 8
  %top_id = alloca ptr, align 8
  store ptr %bs, ptr %bs.addr, align 8
  store ptr %options, ptr %options.addr, align 8
  store i32 %flags, ptr %flags.addr, align 4
  store ptr %errp, ptr %errp.addr, align 8
  %0 = load ptr, ptr %bs.addr, align 8
  %opaque = getelementptr inbounds %struct.BlockDriverState, ptr %0, i32 0, i32 7
  %1 = load ptr, ptr %opaque, align 8
  store ptr %1, ptr %s, align 8
  store ptr null, ptr %opts, align 8
  %2 = load ptr, ptr %options.addr, align 8
  %3 = load ptr, ptr %bs.addr, align 8
  %4 = load ptr, ptr %errp.addr, align 8
  %call = call i32 @bdrv_open_file_child(ptr noundef null, ptr noundef %2, ptr noundef @.str.3, ptr noundef %3, ptr noundef %4)
  store i32 %call, ptr %ret, align 4
  %5 = load i32, ptr %ret, align 4
  %cmp = icmp slt i32 %5, 0
  br i1 %cmp, label %if.then, label %if.end

if.then:                                          ; preds = %entry
  %6 = load i32, ptr %ret, align 4
  store i32 %6, ptr %retval, align 4
  br label %return

if.end:                                           ; preds = %entry
  store i32 -22, ptr %ret, align 4
  %call1 = call ptr @qemu_opts_create(ptr noundef @replication_runtime_opts, ptr noundef null, i32 noundef 0, ptr noundef @error_abort)
  store ptr %call1, ptr %opts, align 8
  %7 = load ptr, ptr %opts, align 8
  %8 = load ptr, ptr %options.addr, align 8
  %9 = load ptr, ptr %errp.addr, align 8
  %call2 = call zeroext i1 @qemu_opts_absorb_qdict(ptr noundef %7, ptr noundef %8, ptr noundef %9)
  br i1 %call2, label %if.end4, label %if.then3

if.then3:                                         ; preds = %if.end
  br label %fail

if.end4:                                          ; preds = %if.end
  %10 = load ptr, ptr %opts, align 8
  %call5 = call ptr @qemu_opt_get(ptr noundef %10, ptr noundef @.str.1)
  store ptr %call5, ptr %mode, align 8
  %11 = load ptr, ptr %mode, align 8
  %tobool = icmp ne ptr %11, null
  br i1 %tobool, label %if.end7, label %if.then6

if.then6:                                         ; preds = %if.end4
  %12 = load ptr, ptr %errp.addr, align 8
  call void (ptr, ptr, i32, ptr, ptr, ...) @error_setg_internal(ptr noundef %12, ptr noundef @.str.4, i32 noundef 104, ptr noundef @__func__.replication_open, ptr noundef @.str.5)
  br label %fail

if.end7:                                          ; preds = %if.end4
  %13 = load ptr, ptr %mode, align 8
  %call8 = call i32 @strcmp(ptr noundef %13, ptr noundef @.str.6) #5
  %tobool9 = icmp ne i32 %call8, 0
  br i1 %tobool9, label %if.else, label %if.then10

if.then10:                                        ; preds = %if.end7
  %14 = load ptr, ptr %s, align 8
  %mode11 = getelementptr inbounds %struct.BDRVReplicationState, ptr %14, i32 0, i32 0
  store i32 0, ptr %mode11, align 8
  %15 = load ptr, ptr %opts, align 8
  %call12 = call ptr @qemu_opt_get(ptr noundef %15, ptr noundef @.str.2)
  store ptr %call12, ptr %top_id, align 8
  %16 = load ptr, ptr %top_id, align 8
  %tobool13 = icmp ne ptr %16, null
  br i1 %tobool13, label %if.then14, label %if.end15

if.then14:                                        ; preds = %if.then10
  %17 = load ptr, ptr %errp.addr, align 8
  call void (ptr, ptr, i32, ptr, ptr, ...) @error_setg_internal(ptr noundef %17, ptr noundef @.str.4, i32 noundef 113, ptr noundef @__func__.replication_open, ptr noundef @.str.7)
  br label %fail

if.end15:                                         ; preds = %if.then10
  br label %if.end29

if.else:                                          ; preds = %if.end7
  %18 = load ptr, ptr %mode, align 8
  %call16 = call i32 @strcmp(ptr noundef %18, ptr noundef @.str.8) #5
  %tobool17 = icmp ne i32 %call16, 0
  br i1 %tobool17, label %if.else27, label %if.then18

if.then18:                                        ; preds = %if.else
  %19 = load ptr, ptr %s, align 8
  %mode19 = getelementptr inbounds %struct.BDRVReplicationState, ptr %19, i32 0, i32 0
  store i32 1, ptr %mode19, align 8
  %20 = load ptr, ptr %opts, align 8
  %call20 = call ptr @qemu_opt_get(ptr noundef %20, ptr noundef @.str.2)
  store ptr %call20, ptr %top_id, align 8
  %21 = load ptr, ptr %top_id, align 8
  %call21 = call noalias ptr @g_strdup(ptr noundef %21)
  %22 = load ptr, ptr %s, align 8
  %top_id22 = getelementptr inbounds %struct.BDRVReplicationState, ptr %22, i32 0, i32 6
  store ptr %call21, ptr %top_id22, align 8
  %23 = load ptr, ptr %s, align 8
  %top_id23 = getelementptr inbounds %struct.BDRVReplicationState, ptr %23, i32 0, i32 6
  %24 = load ptr, ptr %top_id23, align 8
  %tobool24 = icmp ne ptr %24, null
  br i1 %tobool24, label %if.end26, label %if.then25

if.then25:                                        ; preds = %if.then18
  %25 = load ptr, ptr %errp.addr, align 8
  call void (ptr, ptr, i32, ptr, ptr, ...) @error_setg_internal(ptr noundef %25, ptr noundef @.str.4, i32 noundef 121, ptr noundef @__func__.replication_open, ptr noundef @.str.9)
  br label %fail

if.end26:                                         ; preds = %if.then18
  br label %if.end28

if.else27:                                        ; preds = %if.else
  %26 = load ptr, ptr %errp.addr, align 8
  call void (ptr, ptr, i32, ptr, ptr, ...) @error_setg_internal(ptr noundef %26, ptr noundef @.str.4, i32 noundef 126, ptr noundef @__func__.replication_open, ptr noundef @.str.10)
  br label %fail

if.end28:                                         ; preds = %if.end26
  br label %if.end29

if.end29:                                         ; preds = %if.end28, %if.end15
  %27 = load ptr, ptr %bs.addr, align 8
  %call30 = call ptr @replication_new(ptr noundef %27, ptr noundef @replication_ops)
  %28 = load ptr, ptr %s, align 8
  %rs = getelementptr inbounds %struct.BDRVReplicationState, ptr %28, i32 0, i32 7
  store ptr %call30, ptr %rs, align 8
  store i32 0, ptr %ret, align 4
  br label %fail

fail:                                             ; preds = %if.end29, %if.else27, %if.then25, %if.then14, %if.then6, %if.then3
  %29 = load ptr, ptr %opts, align 8
  call void @qemu_opts_del(ptr noundef %29)
  %30 = load i32, ptr %ret, align 4
  store i32 %30, ptr %retval, align 4
  br label %return

return:                                           ; preds = %fail, %if.then
  %31 = load i32, ptr %retval, align 4
  ret i32 %31
}