; Function Attrs: nounwind sspstrong uwtable
define internal range(i32 -2147483648, 1) i32 @replication_open(ptr noundef %bs, ptr noundef %options, i32 %flags, ptr noundef %errp) #0 {
entry:
  %opaque = getelementptr inbounds nuw i8, ptr %bs, i64 24
  %0 = load ptr, ptr %opaque, align 8
  %call = tail call i32 @bdrv_open_file_child(ptr noundef null, ptr noundef %options, ptr noundef nonnull @.str.3, ptr noundef %bs, ptr noundef %errp) #8
  %cmp = icmp slt i32 %call, 0
  br i1 %cmp, label %return, label %if.end

if.end:                                           ; preds = %entry
  %call1 = tail call ptr @qemu_opts_create(ptr noundef nonnull @replication_runtime_opts, ptr noundef null, i32 noundef 0, ptr noundef nonnull @error_abort) #8
  %call2 = tail call zeroext i1 @qemu_opts_absorb_qdict(ptr noundef %call1, ptr noundef %options, ptr noundef %errp) #8
  br i1 %call2, label %if.end4, label %fail

if.end4:                                          ; preds = %if.end
  %call5 = tail call ptr @qemu_opt_get(ptr noundef %call1, ptr noundef nonnull @.str.1) #8
  %tobool.not = icmp eq ptr %call5, null
  br i1 %tobool.not, label %if.then6, label %if.end7

if.then6:                                         ; preds = %if.end4
  tail call void (ptr, ptr, i32, ptr, ptr, ...) @error_setg_internal(ptr noundef %errp, ptr noundef nonnull @.str.4, i32 noundef 104, ptr noundef nonnull @__func__.replication_open, ptr noundef nonnull @.str.5) #8
  br label %fail

if.end7:                                          ; preds = %if.end4
  %call8 = tail call i32 @strcmp(ptr noundef nonnull dereferenceable(1) %call5, ptr noundef nonnull dereferenceable(8) @.str.6) #9
  %tobool9.not = icmp eq i32 %call8, 0
  br i1 %tobool9.not, label %if.then10, label %if.else

if.then10:                                        ; preds = %if.end7
  store i32 0, ptr %0, align 8
  %call12 = tail call ptr @qemu_opt_get(ptr noundef %call1, ptr noundef nonnull @.str.2) #8
  %tobool13.not = icmp eq ptr %call12, null
  br i1 %tobool13.not, label %if.end29, label %if.then14

if.then14:                                        ; preds = %if.then10
  tail call void (ptr, ptr, i32, ptr, ptr, ...) @error_setg_internal(ptr noundef %errp, ptr noundef nonnull @.str.4, i32 noundef 113, ptr noundef nonnull @__func__.replication_open, ptr noundef nonnull @.str.7) #8
  br label %fail

if.else:                                          ; preds = %if.end7
  %call16 = tail call i32 @strcmp(ptr noundef nonnull dereferenceable(1) %call5, ptr noundef nonnull dereferenceable(10) @.str.8) #9
  %tobool17.not = icmp eq i32 %call16, 0
  br i1 %tobool17.not, label %if.then18, label %if.else27

if.then18:                                        ; preds = %if.else
  store i32 1, ptr %0, align 8
  %call20 = tail call ptr @qemu_opt_get(ptr noundef %call1, ptr noundef nonnull @.str.2) #8
  %call21 = tail call noalias ptr @g_strdup(ptr noundef %call20) #8
  %top_id22 = getelementptr inbounds nuw i8, ptr %0, i64 40
  store ptr %call21, ptr %top_id22, align 8
  %tobool24.not = icmp eq ptr %call21, null
  br i1 %tobool24.not, label %if.then25, label %if.end29

if.then25:                                        ; preds = %if.then18
  tail call void (ptr, ptr, i32, ptr, ptr, ...) @error_setg_internal(ptr noundef %errp, ptr noundef nonnull @.str.4, i32 noundef 121, ptr noundef nonnull @__func__.replication_open, ptr noundef nonnull @.str.9) #8
  br label %fail

if.else27:                                        ; preds = %if.else
  tail call void (ptr, ptr, i32, ptr, ptr, ...) @error_setg_internal(ptr noundef %errp, ptr noundef nonnull @.str.4, i32 noundef 126, ptr noundef nonnull @__func__.replication_open, ptr noundef nonnull @.str.10) #8
  br label %fail

if.end29:                                         ; preds = %if.then18, %if.then10
  %call30 = tail call ptr @replication_new(ptr noundef nonnull %bs, ptr noundef nonnull @replication_ops) #8
  %rs = getelementptr inbounds nuw i8, ptr %0, i64 48
  store ptr %call30, ptr %rs, align 8
  br label %fail

fail:                                             ; preds = %if.end, %if.end29, %if.else27, %if.then25, %if.then14, %if.then6
  %ret.0 = phi i32 [ -22, %if.else27 ], [ 0, %if.end29 ], [ -22, %if.then25 ], [ -22, %if.then14 ], [ -22, %if.then6 ], [ -22, %if.end ]
  tail call void @qemu_opts_del(ptr noundef %call1) #8
  br label %return

return:                                           ; preds = %entry, %fail
  %retval.0 = phi i32 [ %ret.0, %fail ], [ %call, %entry ]
  ret i32 %retval.0
}